target datalayout = "e-m:e-p270:32:32-p271:32:32-p272:64:64-i64:64-i128:128-f80:128-n8:16:32:64-S128"
target triple = "x86_64-pc-linux-gnu"

%class.G1NUMA = type { ptr, i32, ptr, i32, i64, i64, ptr }
%class.G1HeapRegion = type { ptr, ptr, ptr, ptr, ptr, ptr, i32, %class.G1HeapRegionType, ptr, i32, ptr, ptr, ptr, i64, i32, ptr, i32, i32, i64 }
%class.G1HeapRegionType = type { i32 }

@AlwaysPreTouch = external global i8, align 1

; Function Attrs: mustprogress nounwind uwtable
define hidden noundef i64 @_ZNK6G1NUMA9page_sizeEv(ptr noundef nonnull align 8 dereferenceable(56) %0) #1 align 2 {
  %2 = alloca ptr, align 8
  store ptr %0, ptr %2, align 8
  %3 = load ptr, ptr %2, align 8
  %4 = getelementptr inbounds %class.G1NUMA, ptr %3, i32 0, i32 5
  %5 = load i64, ptr %4, align 8
  ret i64 %5
}

; Function Attrs: mustprogress nounwind uwtable
define hidden noundef i64 @_ZNK6G1NUMA11region_sizeEv(ptr noundef nonnull align 8 dereferenceable(56) %0) #1 align 2 {
  %2 = alloca ptr, align 8
  store ptr %0, ptr %2, align 8
  %3 = load ptr, ptr %2, align 8
  %4 = getelementptr inbounds %class.G1NUMA, ptr %3, i32 0, i32 4
  %5 = load i64, ptr %4, align 8
  ret i64 %5
}

; Function Attrs: mustprogress nounwind uwtable
define linkonce_odr hidden noundef i32 @_ZNK6G1NUMA16index_of_node_idEj(ptr noundef nonnull align 8 dereferenceable(56) %0, i32 noundef %1) #1 comdat align 2 {
  %3 = alloca ptr, align 8
  %4 = alloca i32, align 4
  %5 = alloca i32, align 4
  store ptr %0, ptr %3, align 8
  store i32 %1, ptr %4, align 4
  %6 = load ptr, ptr %3, align 8
  %7 = getelementptr inbounds %class.G1NUMA, ptr %6, i32 0, i32 0
  %8 = load ptr, ptr %7, align 8
  %9 = load i32, ptr %4, align 4
  %10 = zext i32 %9 to i64
  %11 = getelementptr inbounds i32, ptr %8, i64 %10
  %12 = load i32, ptr %11, align 4
  store i32 %12, ptr %5, align 4
  %13 = load i32, ptr %5, align 4
  ret i32 %13
}

; Function Attrs: mustprogress nounwind uwtable
define linkonce_odr hidden noundef i32 @_Z12checked_castIjiET_T0_(i32 noundef %0) #1 comdat {
  %2 = alloca i32, align 4
  %3 = alloca i32, align 4
  store i32 %0, ptr %2, align 4
  %4 = load i32, ptr %2, align 4
  store i32 %4, ptr %3, align 4
  %5 = load i32, ptr %3, align 4
  ret i32 %5
}

; Function Attrs: mustprogress nounwind uwtable
define hidden noundef i32 @_ZNK6G1NUMA16num_active_nodesEv(ptr noundef nonnull align 8 dereferenceable(56) %0) #1 align 2 {
  %2 = alloca ptr, align 8
  store ptr %0, ptr %2, align 8
  %3 = load ptr, ptr %2, align 8
  %4 = getelementptr inbounds %class.G1NUMA, ptr %3, i32 0, i32 3
  %5 = load i32, ptr %4, align 8
  ret i32 %5
}

; Function Attrs: mustprogress nounwind uwtable
define hidden noundef i32 @_ZNK6G1NUMA30preferred_node_index_for_indexEj(ptr noundef nonnull align 8 dereferenceable(56) %0, i32 noundef %1) #1 align 2 {
  %3 = alloca i32, align 4
  %4 = alloca ptr, align 8
  %5 = alloca i32, align 4
  %6 = alloca i64, align 8
  store ptr %0, ptr %4, align 8
  store i32 %1, ptr %5, align 4
  %7 = load ptr, ptr %4, align 8
  %8 = call noundef i64 @_ZNK6G1NUMA11region_sizeEv(ptr noundef nonnull align 8 dereferenceable(56) %7)
  %9 = call noundef i64 @_ZNK6G1NUMA9page_sizeEv(ptr noundef nonnull align 8 dereferenceable(56) %7)
  %10 = icmp uge i64 %8, %9
  br i1 %10, label %11, label %16

11:                                               ; preds = %2
  %12 = load i32, ptr %5, align 4
  %13 = getelementptr inbounds %class.G1NUMA, ptr %7, i32 0, i32 3
  %14 = load i32, ptr %13, align 8
  %15 = urem i32 %12, %14
  store i32 %15, ptr %3, align 4
  br label %29

16:                                               ; preds = %2
  %17 = call noundef i64 @_ZNK6G1NUMA9page_sizeEv(ptr noundef nonnull align 8 dereferenceable(56) %7)
  %18 = call noundef i64 @_ZNK6G1NUMA11region_sizeEv(ptr noundef nonnull align 8 dereferenceable(56) %7)
  %19 = udiv i64 %17, %18
  store i64 %19, ptr %6, align 8
  %20 = load i32, ptr %5, align 4
  %21 = zext i32 %20 to i64
  %22 = load i64, ptr %6, align 8
  %23 = udiv i64 %21, %22
  %24 = getelementptr inbounds %class.G1NUMA, ptr %7, i32 0, i32 3
  %25 = load i32, ptr %24, align 8
  %26 = zext i32 %25 to i64
  %27 = urem i64 %23, %26
  %28 = trunc i64 %27 to i32
  store i32 %28, ptr %3, align 4
  br label %29

29:                                               ; preds = %16, %11
  %30 = load i32, ptr %3, align 4
  ret i32 %30
}

; Function Attrs: mustprogress nounwind uwtable
define linkonce_odr hidden noundef i32 @_ZNK12G1HeapRegion9hrm_indexEv(ptr noundef nonnull align 8 dereferenceable(136) %0) #1 comdat align 2 {
  %2 = alloca ptr, align 8
  store ptr %0, ptr %2, align 8
  %3 = load ptr, ptr %2, align 8
  %4 = getelementptr inbounds %class.G1HeapRegion, ptr %3, i32 0, i32 6
  %5 = load i32, ptr %4, align 8
  ret i32 %5
}

; Function Attrs: mustprogress nounwind uwtable
define hidden noundef i32 @_ZNK6G1NUMA16index_of_addressEPP12HeapWordImpl(ptr noundef nonnull align 8 dereferenceable(56) %0, ptr noundef %1) #1 align 2 {
  %3 = alloca i32, align 4
  %4 = alloca ptr, align 8
  %5 = alloca ptr, align 8
  %6 = alloca i32, align 4
  store ptr %0, ptr %4, align 8
  store ptr %1, ptr %5, align 8
  %7 = load ptr, ptr %4, align 8
  %8 = load ptr, ptr %5, align 8
  %9 = call noundef i32 @_ZN2os29numa_get_group_id_for_addressEPKv(ptr noundef %8)
  store i32 %9, ptr %6, align 4
  %10 = load i32, ptr %6, align 4
  %11 = icmp eq i32 %10, -1
  br i1 %11, label %12, label %13

12:                                               ; preds = %2
  store i32 -1, ptr %3, align 4
  br label %17

13:                                               ; preds = %2
  %14 = load i32, ptr %6, align 4
  %15 = call noundef i32 @_Z12checked_castIjiET_T0_(i32 noundef %14)
  %16 = call noundef i32 @_ZNK6G1NUMA16index_of_node_idEj(ptr noundef nonnull align 8 dereferenceable(56) %7, i32 noundef %15)
  store i32 %16, ptr %3, align 4
  br label %17

17:                                               ; preds = %13, %12
  %18 = load i32, ptr %3, align 4
  ret i32 %18
}

; Function Attrs: mustprogress nounwind uwtable
define linkonce_odr hidden noundef ptr @_ZNK12G1HeapRegion6bottomEv(ptr noundef nonnull align 8 dereferenceable(136) %0) #1 comdat align 2 {
  %2 = alloca ptr, align 8
  store ptr %0, ptr %2, align 8
  %3 = load ptr, ptr %2, align 8
  %4 = getelementptr inbounds %class.G1HeapRegion, ptr %3, i32 0, i32 0
  %5 = load ptr, ptr %4, align 8
  ret ptr %5
}

; Function Attrs: mustprogress nounwind uwtable
define hidden noundef zeroext i1 @_ZNK6G1NUMA10is_enabledEv(ptr noundef nonnull align 8 dereferenceable(56) %0) #1 align 2 {
  %2 = alloca ptr, align 8
  store ptr %0, ptr %2, align 8
  %3 = load ptr, ptr %2, align 8
  %4 = call noundef i32 @_ZNK6G1NUMA16num_active_nodesEv(ptr noundef nonnull align 8 dereferenceable(56) %3)
  %5 = icmp ugt i32 %4, 1
  ret i1 %5
}

; Function Attrs: mustprogress nounwind uwtable
define hidden noundef i32 @_ZNK6G1NUMA16index_for_regionEP12G1HeapRegion(ptr noundef nonnull align 8 dereferenceable(56) %0, ptr noundef %1) #1 align 2 {
  %3 = alloca i32, align 4
  %4 = alloca ptr, align 8
  %5 = alloca ptr, align 8
  %6 = alloca i32, align 4
  store ptr %0, ptr %4, align 8
  store ptr %1, ptr %5, align 8
  %7 = load ptr, ptr %4, align 8
  %8 = call noundef zeroext i1 @_ZNK6G1NUMA10is_enabledEv(ptr noundef nonnull align 8 dereferenceable(56) %7)
  br i1 %8, label %10, label %9

9:                                                ; preds = %2
  store i32 0, ptr %3, align 4
  br label %26

10:                                               ; preds = %2
  %11 = load i8, ptr @AlwaysPreTouch, align 1
  %12 = trunc i8 %11 to i1
  br i1 %12, label %13, label %22

13:                                               ; preds = %10
  %14 = load ptr, ptr %5, align 8
  %15 = call noundef ptr @_ZNK12G1HeapRegion6bottomEv(ptr noundef nonnull align 8 dereferenceable(136) %14)
  %16 = call noundef i32 @_ZNK6G1NUMA16index_of_addressEPP12HeapWordImpl(ptr noundef nonnull align 8 dereferenceable(56) %7, ptr noundef %15)
  store i32 %16, ptr %6, align 4
  %17 = load i32, ptr %6, align 4
  %18 = icmp ne i32 %17, -1
  br i1 %18, label %19, label %21

19:                                               ; preds = %13
  %20 = load i32, ptr %6, align 4
  store i32 %20, ptr %3, align 4
  br label %26

21:                                               ; preds = %13
  br label %22

22:                                               ; preds = %21, %10
  %23 = load ptr, ptr %5, align 8
  %24 = call noundef i32 @_ZNK12G1HeapRegion9hrm_indexEv(ptr noundef nonnull align 8 dereferenceable(136) %23)
  %25 = call noundef i32 @_ZNK6G1NUMA30preferred_node_index_for_indexEj(ptr noundef nonnull align 8 dereferenceable(56) %7, i32 noundef %24)
  store i32 %25, ptr %3, align 4
  br label %26

26:                                               ; preds = %22, %19, %9
  %27 = load i32, ptr %3, align 4
  ret i32 %27
}