; Function Attrs: mustprogress nounwind uwtable
define hidden noundef i32 @_ZNK6G1NUMA16index_for_regionEP12G1HeapRegion(ptr nocapture noundef nonnull readonly align 8 dereferenceable(56) %0, ptr nocapture noundef readonly %1) local_unnamed_addr #1 align 2 {
  %3 = getelementptr inbounds i8, ptr %0, i64 24
  %4 = load i32, ptr %3, align 8
  %5 = icmp ugt i32 %4, 1
  br i1 %5, label %6, label %_ZNK6G1NUMA30preferred_node_index_for_indexEj.exit

6:                                                ; preds = %2
  %7 = load i8, ptr @AlwaysPreTouch, align 1
  %8 = trunc i8 %7 to i1
  br i1 %8, label %9, label %_ZNK6G1NUMA16index_of_addressEPP12HeapWordImpl.exit.thread

9:                                                ; preds = %6
  %10 = load ptr, ptr %1, align 8
  %11 = tail call noundef i32 @_ZN2os29numa_get_group_id_for_addressEPKv(ptr noundef %10) #12
  %12 = icmp eq i32 %11, -1
  br i1 %12, label %_ZNK6G1NUMA16index_of_addressEPP12HeapWordImpl.exit.thread, label %_ZNK6G1NUMA16index_of_addressEPP12HeapWordImpl.exit

_ZNK6G1NUMA16index_of_addressEPP12HeapWordImpl.exit: ; preds = %9
  %13 = load ptr, ptr %0, align 8
  %14 = zext i32 %11 to i64
  %15 = getelementptr inbounds i32, ptr %13, i64 %14
  %16 = load i32, ptr %15, align 4
  %.not = icmp eq i32 %16, -1
  br i1 %.not, label %_ZNK6G1NUMA16index_of_addressEPP12HeapWordImpl.exit.thread, label %_ZNK6G1NUMA30preferred_node_index_for_indexEj.exit

_ZNK6G1NUMA16index_of_addressEPP12HeapWordImpl.exit.thread: ; preds = %9, %_ZNK6G1NUMA16index_of_addressEPP12HeapWordImpl.exit, %6
  %17 = getelementptr inbounds i8, ptr %1, i64 48
  %18 = load i32, ptr %17, align 8
  %19 = getelementptr inbounds i8, ptr %0, i64 32
  %20 = load i64, ptr %19, align 8
  %21 = getelementptr inbounds i8, ptr %0, i64 40
  %22 = load i64, ptr %21, align 8
  %.not.i = icmp ult i64 %20, %22
  br i1 %.not.i, label %26, label %23

23:                                               ; preds = %_ZNK6G1NUMA16index_of_addressEPP12HeapWordImpl.exit.thread
  %24 = load i32, ptr %3, align 8
  %25 = urem i32 %18, %24
  br label %_ZNK6G1NUMA30preferred_node_index_for_indexEj.exit

26:                                               ; preds = %_ZNK6G1NUMA16index_of_addressEPP12HeapWordImpl.exit.thread
  %27 = udiv i64 %22, %20
  %28 = zext i32 %18 to i64
  %29 = udiv i64 %28, %27
  %30 = load i32, ptr %3, align 8
  %.lhs.trunc.i = trunc nuw i64 %29 to i32
  %31 = urem i32 %.lhs.trunc.i, %30
  br label %_ZNK6G1NUMA30preferred_node_index_for_indexEj.exit

_ZNK6G1NUMA30preferred_node_index_for_indexEj.exit: ; preds = %26, %23, %_ZNK6G1NUMA16index_of_addressEPP12HeapWordImpl.exit, %2
  %.0 = phi i32 [ 0, %2 ], [ %16, %_ZNK6G1NUMA16index_of_addressEPP12HeapWordImpl.exit ], [ %25, %23 ], [ %31, %26 ]
  ret i32 %.0
}